; Function Attrs: nounwind uwtable
define dso_local void @mp_encode_lua_table_as_array(ptr noundef %0, ptr noundef captures(none) %1, i32 noundef %2) local_unnamed_addr #2 {
  %4 = tail call i64 @lua_objlen(ptr noundef %0, i32 noundef -1) #10
  tail call void @mp_encode_array(ptr noundef %0, ptr noundef %1, i64 noundef %4)
  tail call void @luaL_checkstack(ptr noundef %0, i32 noundef 1, ptr noundef nonnull @.str) #10
  %.not13 = icmp eq i64 %4, 0
  br i1 %.not13, label %._crit_edge, label %.lr.ph

.lr.ph:                                           ; preds = %3
  %5 = add nsw i32 %2, 1
  br label %6

6:                                                ; preds = %.lr.ph, %6
  %.014 = phi i64 [ 1, %.lr.ph ], [ %8, %6 ]
  %7 = uitofp i64 %.014 to double
  tail call void @lua_pushnumber(ptr noundef %0, double noundef %7) #10
  tail call void @lua_gettable(ptr noundef %0, i32 noundef -2) #10
  tail call void @mp_encode_lua_type(ptr noundef %0, ptr noundef %1, i32 noundef %5)
  %8 = add i64 %.014, 1
  %.not = icmp ugt i64 %8, %4
  br i1 %.not, label %._crit_edge, label %6, !llvm.loop !23

._crit_edge:                                      ; preds = %6, %3
  ret void
}